; Function Attrs: nounwind uwtable
define internal range(i64 -2147483648, 2147483648) i64 @bio_core_ctrl(ptr noundef %0, i32 noundef %1, i64 noundef %2, ptr noundef %3) #0 {
  %5 = load ptr, ptr %0, align 8, !tbaa !20
  %6 = tail call ptr @ossl_lib_ctx_get_data(ptr noundef %5, i32 noundef 17) #3
  %7 = icmp eq ptr %6, null
  br i1 %7, label %16, label %8

8:                                                ; preds = %4
  %9 = getelementptr inbounds nuw i8, ptr %6, i64 32
  %10 = load ptr, ptr %9, align 8, !tbaa !16
  %11 = icmp eq ptr %10, null
  br i1 %11, label %16, label %12

12:                                               ; preds = %8
  %13 = tail call ptr @BIO_get_data(ptr noundef nonnull %0) #3
  %14 = tail call i32 %10(ptr noundef %13, i32 noundef %1, i64 noundef %2, ptr noundef %3) #3
  %15 = sext i32 %14 to i64
  br label %16

16:                                               ; preds = %4, %8, %12
  %.0 = phi i64 [ %15, %12 ], [ -1, %8 ], [ -1, %4 ]
  ret i64 %.0
}